target datalayout = "e-m:e-p270:32:32-p271:32:32-p272:64:64-i64:64-i128:128-f80:128-n8:16:32:64-S128"
target triple = "x86_64-unknown-linux-gnu"

%"class.icu_75::UnicodeString" = type { %"class.icu_75::Replaceable", %"union.icu_75::UnicodeString::StackBufferOrFields" }
%"class.icu_75::Replaceable" = type { %"class.icu_75::UObject" }
%"class.icu_75::UObject" = type { ptr }
%"union.icu_75::UnicodeString::StackBufferOrFields" = type { %struct.anon.0, [32 x i8] }
%struct.anon.0 = type { i16, i32, i32, ptr }
%"class.icu_75::ConstChar16Ptr" = type { ptr }
%struct.anon = type { i16, [27 x i16] }
%"class.icu_75::StackUResourceBundle" = type { %struct.UResourceBundle }
%struct.UResourceBundle = type { ptr, ptr, ptr, ptr, ptr, [64 x i8], i32, i32, i8, i8, i32, i32, i32, i32 }

@.str.2 = private unnamed_addr constant [6 x i8] c"links\00", align 1
@.str.3 = private unnamed_addr constant [6 x i8] c"Names\00", align 1
@_ZTVN6icu_757UObjectE = external unnamed_addr constant { [5 x ptr] }, align 8
@_ZTVN6icu_7513UnicodeStringE = external unnamed_addr constant { [13 x ptr] }, align 8
@_ZTVN6icu_7511ReplaceableE = external unnamed_addr constant { [13 x ptr] }, align 8

; Function Attrs: mustprogress nounwind uwtable
define linkonce_odr void @_ZN6icu_757UObjectC2Ev(ptr noundef nonnull align 8 dereferenceable(8) %this) unnamed_addr #2 comdat align 2 {
entry:
  %this.addr = alloca ptr, align 8
  store ptr %this, ptr %this.addr, align 8
  %this1 = load ptr, ptr %this.addr, align 8
  store ptr getelementptr inbounds ({ [5 x ptr] }, ptr @_ZTVN6icu_757UObjectE, i32 0, i32 0, i32 2), ptr %this1, align 8
  ret void
}

; Function Attrs: mustprogress nounwind uwtable
define linkonce_odr void @_ZN6icu_7511ReplaceableC2Ev(ptr noundef nonnull align 8 dereferenceable(8) %this) unnamed_addr #2 comdat align 2 {
entry:
  %this.addr = alloca ptr, align 8
  store ptr %this, ptr %this.addr, align 8
  %this1 = load ptr, ptr %this.addr, align 8
  call void @_ZN6icu_757UObjectC2Ev(ptr noundef nonnull align 8 dereferenceable(8) %this1) #11
  store ptr getelementptr inbounds ({ [13 x ptr] }, ptr @_ZTVN6icu_7511ReplaceableE, i32 0, i32 0, i32 2), ptr %this1, align 8
  ret void
}

; Function Attrs: mustprogress nounwind uwtable
define linkonce_odr void @_ZN6icu_7514ConstChar16PtrD2Ev(ptr noundef nonnull align 8 dereferenceable(8) %this) unnamed_addr #2 comdat align 2 {
entry:
  %this.addr = alloca ptr, align 8
  store ptr %this, ptr %this.addr, align 8
  %this1 = load ptr, ptr %this.addr, align 8
  %p_ = getelementptr inbounds %"class.icu_75::ConstChar16Ptr", ptr %this1, i32 0, i32 0
  %0 = load ptr, ptr %p_, align 8
  call void asm sideeffect "", "rm,~{memory},~{dirflag},~{fpsr},~{flags}"(ptr %0) #11, !srcloc !4
  ret void
}

; Function Attrs: mustprogress nounwind uwtable
define linkonce_odr void @_ZN6icu_7514ConstChar16PtrC2EPKDs(ptr noundef nonnull align 8 dereferenceable(8) %this, ptr noundef %p) unnamed_addr #2 comdat align 2 {
entry:
  %this.addr = alloca ptr, align 8
  %p.addr = alloca ptr, align 8
  store ptr %this, ptr %this.addr, align 8
  store ptr %p, ptr %p.addr, align 8
  %this1 = load ptr, ptr %this.addr, align 8
  %p_ = getelementptr inbounds %"class.icu_75::ConstChar16Ptr", ptr %this1, i32 0, i32 0
  %0 = load ptr, ptr %p.addr, align 8
  store ptr %0, ptr %p_, align 8
  ret void
}

; Function Attrs: mustprogress nounwind uwtable
define linkonce_odr noundef ptr @_ZN6icu_7520StackUResourceBundle8getAliasEv(ptr noundef nonnull align 8 dereferenceable(136) %this) #2 comdat align 2 {
entry:
  %this.addr = alloca ptr, align 8
  store ptr %this, ptr %this.addr, align 8
  %this1 = load ptr, ptr %this.addr, align 8
  %bundle = getelementptr inbounds %"class.icu_75::StackUResourceBundle", ptr %this1, i32 0, i32 0
  ret ptr %bundle
}

; Function Attrs: mustprogress nounwind uwtable
define internal noundef signext i8 @_ZL9U_SUCCESS10UErrorCode(i32 noundef %code) #2 {
entry:
  %code.addr = alloca i32, align 4
  store i32 %code, ptr %code.addr, align 4
  %0 = load i32, ptr %code.addr, align 4
  %cmp = icmp sle i32 %0, 0
  %conv = zext i1 %cmp to i8
  ret i8 %conv
}

; Function Attrs: mustprogress nounwind uwtable
define linkonce_odr noundef nonnull align 8 dereferenceable(136) ptr @_ZN6icu_7520StackUResourceBundle3refEv(ptr noundef nonnull align 8 dereferenceable(136) %this) #2 comdat align 2 {
entry:
  %this.addr = alloca ptr, align 8
  store ptr %this, ptr %this.addr, align 8
  %this1 = load ptr, ptr %this.addr, align 8
  %bundle = getelementptr inbounds %"class.icu_75::StackUResourceBundle", ptr %this1, i32 0, i32 0
  ret ptr %bundle
}

; Function Attrs: mustprogress uwtable
define linkonce_odr void @_ZN6icu_7513UnicodeStringC2Ev(ptr noundef nonnull align 8 dereferenceable(64) %this) unnamed_addr #0 comdat align 2 {
entry:
  %this.addr = alloca ptr, align 8
  store ptr %this, ptr %this.addr, align 8
  %this1 = load ptr, ptr %this.addr, align 8
  call void @_ZN6icu_7511ReplaceableC2Ev(ptr noundef nonnull align 8 dereferenceable(8) %this1)
  store ptr getelementptr inbounds ({ [13 x ptr] }, ptr @_ZTVN6icu_7513UnicodeStringE, i32 0, i32 0, i32 2), ptr %this1, align 8
  %fUnion2 = getelementptr inbounds %"class.icu_75::UnicodeString", ptr %this1, i32 0, i32 1
  %fLengthAndFlags = getelementptr inbounds %struct.anon, ptr %fUnion2, i32 0, i32 0
  store i16 2, ptr %fLengthAndFlags, align 8
  ret void
}

; Function Attrs: mustprogress uwtable
define void @_ZN6icu_758TimeZone15getEquivalentIDERKNS_13UnicodeStringEi(ptr noalias sret(%"class.icu_75::UnicodeString") align 8 %agg.result, ptr noundef nonnull align 8 dereferenceable(64) %id, i32 noundef %index) #0 align 2 personality ptr @__gxx_personality_v0 {
entry:
  %result.ptr = alloca ptr, align 8
  %id.addr = alloca ptr, align 8
  %index.addr = alloca i32, align 4
  %nrvo = alloca i1, align 1
  %ec = alloca i32, align 4
  %res = alloca %"class.icu_75::StackUResourceBundle", align 8
  %exn.slot = alloca ptr, align 8
  %ehselector.slot = alloca i32, align 4
  %top = alloca ptr, align 8
  %zone = alloca i32, align 4
  %r = alloca %"class.icu_75::StackUResourceBundle", align 8
  %size = alloca i32, align 4
  %v = alloca ptr, align 8
  %ares = alloca ptr, align 8
  %idLen = alloca i32, align 4
  %id2 = alloca ptr, align 8
  %ref.tmp = alloca %"class.icu_75::UnicodeString", align 8
  %agg.tmp = alloca %"class.icu_75::ConstChar16Ptr", align 8
  store ptr %agg.result, ptr %result.ptr, align 8
  store ptr %id, ptr %id.addr, align 8
  store i32 %index, ptr %index.addr, align 4
  store i1 false, ptr %nrvo, align 1
  call void @_ZN6icu_7513UnicodeStringC2Ev(ptr noundef nonnull align 8 dereferenceable(64) %agg.result)
  store i32 0, ptr %ec, align 4
  invoke void @_ZN6icu_7520StackUResourceBundleC1Ev(ptr noundef nonnull align 8 dereferenceable(136) %res)
          to label %invoke.cont unwind label %lpad

invoke.cont:                                      ; preds = %entry
  %0 = load ptr, ptr %id.addr, align 8
  %call = invoke noundef nonnull align 8 dereferenceable(136) ptr @_ZN6icu_7520StackUResourceBundle3refEv(ptr noundef nonnull align 8 dereferenceable(136) %res)
          to label %invoke.cont2 unwind label %lpad1

invoke.cont2:                                     ; preds = %invoke.cont
  %call4 = invoke noundef ptr @_ZN6icu_75L17openOlsonResourceERKNS_13UnicodeStringER15UResourceBundleR10UErrorCode(ptr noundef nonnull align 8 dereferenceable(64) %0, ptr noundef nonnull align 8 dereferenceable(136) %call, ptr noundef nonnull align 4 dereferenceable(4) %ec)
          to label %invoke.cont3 unwind label %lpad1

invoke.cont3:                                     ; preds = %invoke.cont2
  store ptr %call4, ptr %top, align 8
  store i32 -1, ptr %zone, align 4
  %1 = load i32, ptr %ec, align 4
  %call6 = invoke noundef signext i8 @_ZL9U_SUCCESS10UErrorCode(i32 noundef %1)
          to label %invoke.cont5 unwind label %lpad1

invoke.cont5:                                     ; preds = %invoke.cont3
  %tobool = icmp ne i8 %call6, 0
  br i1 %tobool, label %if.then, label %if.end26

if.then:                                          ; preds = %invoke.cont5
  invoke void @_ZN6icu_7520StackUResourceBundleC1Ev(ptr noundef nonnull align 8 dereferenceable(136) %r)
          to label %invoke.cont7 unwind label %lpad1

invoke.cont7:                                     ; preds = %if.then
  %call10 = invoke noundef ptr @_ZN6icu_7520StackUResourceBundle8getAliasEv(ptr noundef nonnull align 8 dereferenceable(136) %res)
          to label %invoke.cont9 unwind label %lpad8

invoke.cont9:                                     ; preds = %invoke.cont7
  %call12 = invoke noundef ptr @_ZN6icu_7520StackUResourceBundle8getAliasEv(ptr noundef nonnull align 8 dereferenceable(136) %r)
          to label %invoke.cont11 unwind label %lpad8

invoke.cont11:                                    ; preds = %invoke.cont9
  %call14 = invoke ptr @ures_getByKey_75(ptr noundef %call10, ptr noundef @.str.2, ptr noundef %call12, ptr noundef %ec)
          to label %invoke.cont13 unwind label %lpad8

invoke.cont13:                                    ; preds = %invoke.cont11
  %call16 = invoke noundef ptr @_ZN6icu_7520StackUResourceBundle8getAliasEv(ptr noundef nonnull align 8 dereferenceable(136) %r)
          to label %invoke.cont15 unwind label %lpad8

invoke.cont15:                                    ; preds = %invoke.cont13
  %call18 = invoke ptr @ures_getIntVector_75(ptr noundef %call16, ptr noundef %size, ptr noundef %ec)
          to label %invoke.cont17 unwind label %lpad8

invoke.cont17:                                    ; preds = %invoke.cont15
  store ptr %call18, ptr %v, align 8
  %2 = load i32, ptr %ec, align 4
  %call20 = invoke noundef signext i8 @_ZL9U_SUCCESS10UErrorCode(i32 noundef %2)
          to label %invoke.cont19 unwind label %lpad8

invoke.cont19:                                    ; preds = %invoke.cont17
  %tobool21 = icmp ne i8 %call20, 0
  br i1 %tobool21, label %if.then22, label %if.end25

if.then22:                                        ; preds = %invoke.cont19
  %3 = load i32, ptr %index.addr, align 4
  %cmp = icmp sge i32 %3, 0
  br i1 %cmp, label %land.lhs.true, label %if.end

land.lhs.true:                                    ; preds = %if.then22
  %4 = load i32, ptr %index.addr, align 4
  %5 = load i32, ptr %size, align 4
  %cmp23 = icmp slt i32 %4, %5
  br i1 %cmp23, label %if.then24, label %if.end

if.then24:                                        ; preds = %land.lhs.true
  %6 = load ptr, ptr %v, align 8
  %7 = load i32, ptr %index.addr, align 4
  %idxprom = sext i32 %7 to i64
  %arrayidx = getelementptr inbounds i32, ptr %6, i64 %idxprom
  %8 = load i32, ptr %arrayidx, align 4
  store i32 %8, ptr %zone, align 4
  br label %if.end

lpad:                                             ; preds = %entry
  %9 = landingpad { ptr, i32 }
          cleanup
  %10 = extractvalue { ptr, i32 } %9, 0
  store ptr %10, ptr %exn.slot, align 8
  %11 = extractvalue { ptr, i32 } %9, 1
  store i32 %11, ptr %ehselector.slot, align 4
  br label %ehcleanup48

lpad1:                                            ; preds = %if.end45, %if.end43, %invoke.cont35, %if.then34, %invoke.cont29, %if.then28, %if.then, %invoke.cont3, %invoke.cont2, %invoke.cont
  %12 = landingpad { ptr, i32 }
          cleanup
  %13 = extractvalue { ptr, i32 } %12, 0
  store ptr %13, ptr %exn.slot, align 8
  %14 = extractvalue { ptr, i32 } %12, 1
  store i32 %14, ptr %ehselector.slot, align 4
  br label %ehcleanup47

lpad8:                                            ; preds = %invoke.cont17, %invoke.cont15, %invoke.cont13, %invoke.cont11, %invoke.cont9, %invoke.cont7
  %15 = landingpad { ptr, i32 }
          cleanup
  %16 = extractvalue { ptr, i32 } %15, 0
  store ptr %16, ptr %exn.slot, align 8
  %17 = extractvalue { ptr, i32 } %15, 1
  store i32 %17, ptr %ehselector.slot, align 4
  call void @_ZN6icu_7520StackUResourceBundleD1Ev(ptr noundef nonnull align 8 dereferenceable(136) %r) #11
  br label %ehcleanup47

if.end:                                           ; preds = %if.then24, %land.lhs.true, %if.then22
  br label %if.end25

if.end25:                                         ; preds = %if.end, %invoke.cont19
  call void @_ZN6icu_7520StackUResourceBundleD1Ev(ptr noundef nonnull align 8 dereferenceable(136) %r) #11
  br label %if.end26

if.end26:                                         ; preds = %if.end25, %invoke.cont5
  %18 = load i32, ptr %zone, align 4
  %cmp27 = icmp sge i32 %18, 0
  br i1 %cmp27, label %if.then28, label %if.end45

if.then28:                                        ; preds = %if.end26
  %19 = load ptr, ptr %top, align 8
  %call30 = invoke ptr @ures_getByKey_75(ptr noundef %19, ptr noundef @.str.3, ptr noundef null, ptr noundef %ec)
          to label %invoke.cont29 unwind label %lpad1

invoke.cont29:                                    ; preds = %if.then28
  store ptr %call30, ptr %ares, align 8
  %20 = load i32, ptr %ec, align 4
  %call32 = invoke noundef signext i8 @_ZL9U_SUCCESS10UErrorCode(i32 noundef %20)
          to label %invoke.cont31 unwind label %lpad1

invoke.cont31:                                    ; preds = %invoke.cont29
  %tobool33 = icmp ne i8 %call32, 0
  br i1 %tobool33, label %if.then34, label %if.end43

if.then34:                                        ; preds = %invoke.cont31
  store i32 0, ptr %idLen, align 4
  %21 = load ptr, ptr %ares, align 8
  %22 = load i32, ptr %zone, align 4
  %call36 = invoke ptr @ures_getStringByIndex_75(ptr noundef %21, i32 noundef %22, ptr noundef %idLen, ptr noundef %ec)
          to label %invoke.cont35 unwind label %lpad1

invoke.cont35:                                    ; preds = %if.then34
  store ptr %call36, ptr %id2, align 8
  %23 = load ptr, ptr %id2, align 8
  invoke void @_ZN6icu_7514ConstChar16PtrC2EPKDs(ptr noundef nonnull align 8 dereferenceable(8) %agg.tmp, ptr noundef %23)
          to label %invoke.cont37 unwind label %lpad1

invoke.cont37:                                    ; preds = %invoke.cont35
  %24 = load i32, ptr %idLen, align 4
  invoke void @_ZN6icu_7513UnicodeStringC1EaNS_14ConstChar16PtrEi(ptr noundef nonnull align 8 dereferenceable(64) %ref.tmp, i8 noundef signext 1, ptr noundef %agg.tmp, i32 noundef %24)
          to label %invoke.cont39 unwind label %lpad38

invoke.cont39:                                    ; preds = %invoke.cont37
  %call42 = invoke noundef nonnull align 8 dereferenceable(64) ptr @_ZN6icu_7513UnicodeString12fastCopyFromERKS0_(ptr noundef nonnull align 8 dereferenceable(64) %agg.result, ptr noundef nonnull align 8 dereferenceable(64) %ref.tmp)
          to label %invoke.cont41 unwind label %lpad40

invoke.cont41:                                    ; preds = %invoke.cont39
  call void @_ZN6icu_7513UnicodeStringD1Ev(ptr noundef nonnull align 8 dereferenceable(64) %ref.tmp) #11
  call void @_ZN6icu_7514ConstChar16PtrD2Ev(ptr noundef nonnull align 8 dereferenceable(8) %agg.tmp) #11
  br label %if.end43

lpad38:                                           ; preds = %invoke.cont37
  %25 = landingpad { ptr, i32 }
          cleanup
  %26 = extractvalue { ptr, i32 } %25, 0
  store ptr %26, ptr %exn.slot, align 8
  %27 = extractvalue { ptr, i32 } %25, 1
  store i32 %27, ptr %ehselector.slot, align 4
  br label %ehcleanup

lpad40:                                           ; preds = %invoke.cont39
  %28 = landingpad { ptr, i32 }
          cleanup
  %29 = extractvalue { ptr, i32 } %28, 0
  store ptr %29, ptr %exn.slot, align 8
  %30 = extractvalue { ptr, i32 } %28, 1
  store i32 %30, ptr %ehselector.slot, align 4
  call void @_ZN6icu_7513UnicodeStringD1Ev(ptr noundef nonnull align 8 dereferenceable(64) %ref.tmp) #11
  br label %ehcleanup

ehcleanup:                                        ; preds = %lpad40, %lpad38
  call void @_ZN6icu_7514ConstChar16PtrD2Ev(ptr noundef nonnull align 8 dereferenceable(8) %agg.tmp) #11
  br label %ehcleanup47

if.end43:                                         ; preds = %invoke.cont41, %invoke.cont31
  %31 = load ptr, ptr %ares, align 8
  invoke void @ures_close_75(ptr noundef %31)
          to label %invoke.cont44 unwind label %lpad1

invoke.cont44:                                    ; preds = %if.end43
  br label %if.end45

if.end45:                                         ; preds = %invoke.cont44, %if.end26
  %32 = load ptr, ptr %top, align 8
  invoke void @ures_close_75(ptr noundef %32)
          to label %invoke.cont46 unwind label %lpad1

invoke.cont46:                                    ; preds = %if.end45
  store i1 true, ptr %nrvo, align 1
  call void @_ZN6icu_7520StackUResourceBundleD1Ev(ptr noundef nonnull align 8 dereferenceable(136) %res) #11
  %nrvo.val = load i1, ptr %nrvo, align 1
  br i1 %nrvo.val, label %nrvo.skipdtor, label %nrvo.unused

ehcleanup47:                                      ; preds = %ehcleanup, %lpad8, %lpad1
  call void @_ZN6icu_7520StackUResourceBundleD1Ev(ptr noundef nonnull align 8 dereferenceable(136) %res) #11
  br label %ehcleanup48

nrvo.unused:                                      ; preds = %invoke.cont46
  call void @_ZN6icu_7513UnicodeStringD1Ev(ptr noundef nonnull align 8 dereferenceable(64) %agg.result) #11
  br label %nrvo.skipdtor

nrvo.skipdtor:                                    ; preds = %nrvo.unused, %invoke.cont46
  ret void

ehcleanup48:                                      ; preds = %ehcleanup47, %lpad
  call void @_ZN6icu_7513UnicodeStringD1Ev(ptr noundef nonnull align 8 dereferenceable(64) %agg.result) #11
  br label %eh.resume

eh.resume:                                        ; preds = %ehcleanup48
  %exn = load ptr, ptr %exn.slot, align 8
  %sel = load i32, ptr %ehselector.slot, align 4
  %lpad.val = insertvalue { ptr, i32 } poison, ptr %exn, 0
  %lpad.val49 = insertvalue { ptr, i32 } %lpad.val, i32 %sel, 1
  resume { ptr, i32 } %lpad.val49
}