; Function Attrs: mustprogress uwtable
define void @_ZN6icu_758TimeZone15getEquivalentIDERKNS_13UnicodeStringEi(ptr noalias sret(%"class.icu_75::UnicodeString") align 8 %agg.result, ptr noundef nonnull align 8 dereferenceable(64) %id, i32 noundef %index) local_unnamed_addr #0 align 2 personality ptr @__gxx_personality_v0 {
entry:
  %ec = alloca i32, align 4
  %res = alloca %"class.icu_75::StackUResourceBundle", align 8
  %r = alloca %"class.icu_75::StackUResourceBundle", align 8
  %size = alloca i32, align 4
  %idLen = alloca i32, align 4
  %ref.tmp = alloca %"class.icu_75::UnicodeString", align 8
  %agg.tmp = alloca %"class.icu_75::ConstChar16Ptr", align 8
  store ptr getelementptr inbounds ({ [13 x ptr] }, ptr @_ZTVN6icu_7513UnicodeStringE, i64 0, i32 0, i64 2), ptr %agg.result, align 8
  %fUnion2.i = getelementptr inbounds i8, ptr %agg.result, i64 8
  store i16 2, ptr %fUnion2.i, align 8
  store i32 0, ptr %ec, align 4
  invoke void @_ZN6icu_7520StackUResourceBundleC1Ev(ptr noundef nonnull align 8 dereferenceable(136) %res)
          to label %invoke.cont unwind label %lpad

invoke.cont:                                      ; preds = %entry
  %call4 = invoke fastcc noundef ptr @_ZN6icu_75L17openOlsonResourceERKNS_13UnicodeStringER15UResourceBundleR10UErrorCode(ptr noundef nonnull align 8 dereferenceable(64) %id, ptr noundef nonnull align 8 dereferenceable(136) %res, ptr noundef nonnull align 4 dereferenceable(4) %ec)
          to label %invoke.cont3 unwind label %lpad1

invoke.cont3:                                     ; preds = %invoke.cont
  %0 = load i32, ptr %ec, align 4
  %cmp.i = icmp sgt i32 %0, 0
  br i1 %cmp.i, label %if.end45, label %if.then

if.then:                                          ; preds = %invoke.cont3
  invoke void @_ZN6icu_7520StackUResourceBundleC1Ev(ptr noundef nonnull align 8 dereferenceable(136) %r)
          to label %invoke.cont7 unwind label %lpad1

invoke.cont7:                                     ; preds = %if.then
  %call14 = invoke ptr @ures_getByKey_75(ptr noundef nonnull %res, ptr noundef nonnull @.str.2, ptr noundef nonnull %r, ptr noundef nonnull %ec)
          to label %invoke.cont13 unwind label %lpad8

invoke.cont13:                                    ; preds = %invoke.cont7
  %call18 = invoke ptr @ures_getIntVector_75(ptr noundef nonnull %r, ptr noundef nonnull %size, ptr noundef nonnull %ec)
          to label %invoke.cont17 unwind label %lpad8

invoke.cont17:                                    ; preds = %invoke.cont13
  %1 = load i32, ptr %ec, align 4
  %cmp.i11 = icmp slt i32 %1, 1
  %cmp = icmp sgt i32 %index, -1
  %or.cond = and i1 %cmp, %cmp.i11
  %2 = load i32, ptr %size, align 4
  %cmp23 = icmp sgt i32 %2, %index
  %or.cond10 = select i1 %or.cond, i1 %cmp23, i1 false
  br i1 %or.cond10, label %if.end26, label %if.end26.thread17

if.end26.thread17:                                ; preds = %invoke.cont17
  call void @_ZN6icu_7520StackUResourceBundleD1Ev(ptr noundef nonnull align 8 dereferenceable(136) %r) #18
  br label %if.end45

lpad:                                             ; preds = %entry
  %3 = landingpad { ptr, i32 }
          cleanup
  br label %ehcleanup48

lpad1:                                            ; preds = %if.end45, %if.end43, %if.then34, %if.then28, %if.then, %invoke.cont
  %4 = landingpad { ptr, i32 }
          cleanup
  br label %ehcleanup47

lpad8:                                            ; preds = %invoke.cont13, %invoke.cont7
  %5 = landingpad { ptr, i32 }
          cleanup
  call void @_ZN6icu_7520StackUResourceBundleD1Ev(ptr noundef nonnull align 8 dereferenceable(136) %r) #18
  br label %ehcleanup47

if.end26:                                         ; preds = %invoke.cont17
  %idxprom = zext nneg i32 %index to i64
  %arrayidx = getelementptr inbounds i32, ptr %call18, i64 %idxprom
  %6 = load i32, ptr %arrayidx, align 4
  call void @_ZN6icu_7520StackUResourceBundleD1Ev(ptr noundef nonnull align 8 dereferenceable(136) %r) #18
  %cmp27 = icmp sgt i32 %6, -1
  br i1 %cmp27, label %if.then28, label %if.end45

if.then28:                                        ; preds = %if.end26
  %call30 = invoke ptr @ures_getByKey_75(ptr noundef %call4, ptr noundef nonnull @.str.3, ptr noundef null, ptr noundef nonnull %ec)
          to label %invoke.cont29 unwind label %lpad1

invoke.cont29:                                    ; preds = %if.then28
  %7 = load i32, ptr %ec, align 4
  %cmp.i13 = icmp sgt i32 %7, 0
  br i1 %cmp.i13, label %if.end43, label %if.then34

if.then34:                                        ; preds = %invoke.cont29
  store i32 0, ptr %idLen, align 4
  %call36 = invoke ptr @ures_getStringByIndex_75(ptr noundef %call30, i32 noundef %6, ptr noundef nonnull %idLen, ptr noundef nonnull %ec)
          to label %invoke.cont35 unwind label %lpad1

invoke.cont35:                                    ; preds = %if.then34
  store ptr %call36, ptr %agg.tmp, align 8
  %8 = load i32, ptr %idLen, align 4
  invoke void @_ZN6icu_7513UnicodeStringC1EaNS_14ConstChar16PtrEi(ptr noundef nonnull align 8 dereferenceable(64) %ref.tmp, i8 noundef signext 1, ptr noundef nonnull %agg.tmp, i32 noundef %8)
          to label %invoke.cont39 unwind label %lpad38

invoke.cont39:                                    ; preds = %invoke.cont35
  %call42 = invoke noundef nonnull align 8 dereferenceable(64) ptr @_ZN6icu_7513UnicodeString12fastCopyFromERKS0_(ptr noundef nonnull align 8 dereferenceable(64) %agg.result, ptr noundef nonnull align 8 dereferenceable(64) %ref.tmp)
          to label %invoke.cont41 unwind label %lpad40

invoke.cont41:                                    ; preds = %invoke.cont39
  call void @_ZN6icu_7513UnicodeStringD1Ev(ptr noundef nonnull align 8 dereferenceable(64) %ref.tmp) #18
  %9 = load ptr, ptr %agg.tmp, align 8
  call void asm sideeffect "", "rm,~{memory},~{dirflag},~{fpsr},~{flags}"(ptr %9) #18, !srcloc !4
  br label %if.end43

lpad38:                                           ; preds = %invoke.cont35
  %10 = landingpad { ptr, i32 }
          cleanup
  br label %ehcleanup

lpad40:                                           ; preds = %invoke.cont39
  %11 = landingpad { ptr, i32 }
          cleanup
  call void @_ZN6icu_7513UnicodeStringD1Ev(ptr noundef nonnull align 8 dereferenceable(64) %ref.tmp) #18
  br label %ehcleanup

ehcleanup:                                        ; preds = %lpad40, %lpad38
  %.pn = phi { ptr, i32 } [ %11, %lpad40 ], [ %10, %lpad38 ]
  %12 = load ptr, ptr %agg.tmp, align 8
  call void asm sideeffect "", "rm,~{memory},~{dirflag},~{fpsr},~{flags}"(ptr %12) #18, !srcloc !4
  br label %ehcleanup47

if.end43:                                         ; preds = %invoke.cont41, %invoke.cont29
  invoke void @ures_close_75(ptr noundef %call30)
          to label %if.end45 unwind label %lpad1

if.end45:                                         ; preds = %invoke.cont3, %if.end26.thread17, %if.end43, %if.end26
  invoke void @ures_close_75(ptr noundef %call4)
          to label %invoke.cont46 unwind label %lpad1

invoke.cont46:                                    ; preds = %if.end45
  call void @_ZN6icu_7520StackUResourceBundleD1Ev(ptr noundef nonnull align 8 dereferenceable(136) %res) #18
  ret void

ehcleanup47:                                      ; preds = %ehcleanup, %lpad8, %lpad1
  %.pn7 = phi { ptr, i32 } [ %4, %lpad1 ], [ %.pn, %ehcleanup ], [ %5, %lpad8 ]
  call void @_ZN6icu_7520StackUResourceBundleD1Ev(ptr noundef nonnull align 8 dereferenceable(136) %res) #18
  br label %ehcleanup48

ehcleanup48:                                      ; preds = %ehcleanup47, %lpad
  %.pn7.pn = phi { ptr, i32 } [ %.pn7, %ehcleanup47 ], [ %3, %lpad ]
  call void @_ZN6icu_7513UnicodeStringD1Ev(ptr noundef nonnull align 8 dereferenceable(64) %agg.result) #18
  resume { ptr, i32 } %.pn7.pn
}